; Function Attrs: mustprogress nofree norecurse nosync nounwind willreturn memory(argmem: write) uwtable
define hidden void @_ZN6Assimp4Ogre10VertexDataC2Ev(ptr noundef nonnull align 8 dereferenceable(200) initializes((0, 4), (8, 32), (40, 44), (48, 56)) %0) unnamed_addr #0 align 2 personality ptr @__gxx_personality_v0 {
  store i32 0, ptr %0, align 8
  %2 = getelementptr inbounds nuw i8, ptr %0, i64 8
  tail call void @llvm.memset.p0.i64(ptr noundef nonnull align 8 dereferenceable(24) %2, i8 0, i64 24, i1 false)
  %3 = getelementptr inbounds nuw i8, ptr %0, i64 40
  store i32 0, ptr %3, align 8
  %4 = getelementptr inbounds nuw i8, ptr %0, i64 48
  store ptr null, ptr %4, align 8
  %5 = getelementptr inbounds nuw i8, ptr %0, i64 56
  store ptr %3, ptr %5, align 8
  %6 = getelementptr inbounds nuw i8, ptr %0, i64 64
  store ptr %3, ptr %6, align 8
  %7 = getelementptr inbounds nuw i8, ptr %0, i64 72
  store i64 0, ptr %7, align 8
  %8 = getelementptr inbounds nuw i8, ptr %0, i64 88
  store i32 0, ptr %8, align 8
  %9 = getelementptr inbounds nuw i8, ptr %0, i64 96
  store ptr null, ptr %9, align 8
  %10 = getelementptr inbounds nuw i8, ptr %0, i64 104
  store ptr %8, ptr %10, align 8
  %11 = getelementptr inbounds nuw i8, ptr %0, i64 112
  store ptr %8, ptr %11, align 8
  %12 = getelementptr inbounds nuw i8, ptr %0, i64 120
  %13 = getelementptr inbounds nuw i8, ptr %0, i64 160
  store i32 0, ptr %13, align 8
  %14 = getelementptr inbounds nuw i8, ptr %0, i64 168
  store ptr null, ptr %14, align 8
  %15 = getelementptr inbounds nuw i8, ptr %0, i64 176
  tail call void @llvm.memset.p0.i64(ptr noundef nonnull align 8 dereferenceable(32) %12, i8 0, i64 32, i1 false)
  store ptr %13, ptr %15, align 8
  %16 = getelementptr inbounds nuw i8, ptr %0, i64 184
  store ptr %13, ptr %16, align 8
  %17 = getelementptr inbounds nuw i8, ptr %0, i64 192
  store i64 0, ptr %17, align 8
  ret void
}